target datalayout = "e-m:e-p270:32:32-p271:32:32-p272:64:64-i64:64-i128:128-f80:128-n8:16:32:64-S128"
target triple = "x86_64-pc-linux-gnu"

%struct.AVFilterContext = type { ptr, ptr, ptr, ptr, ptr, i32, ptr, ptr, i32, ptr, ptr, i32, i32, ptr, ptr, ptr, ptr, i32, ptr, i32, i32 }
%struct.XFadeContext = type { ptr, i32, i64, i64, ptr, i32, i32, i32, i64, i64, i64, i64, i32, [2 x i32], [2 x ptr], i32, [4 x i16], [4 x i16], ptr, ptr }
%struct.AVRational = type { i32, i32 }
%struct.AVFrame = type { [8 x ptr], [8 x i32], ptr, i32, i32, i32, i32, i32, %struct.AVRational, i64, i64, %struct.AVRational, i32, ptr, i32, i32, [8 x ptr], ptr, i32, ptr, i32, i32, i32, i32, i32, i32, i32, i64, ptr, i32, ptr, ptr, i64, i64, i64, i64, ptr, %struct.AVChannelLayout, i64 }
%struct.AVChannelLayout = type { i32, i32, %union.anon.1, ptr }
%union.anon.1 = type { i64 }

; Function Attrs: alwaysinline nounwind willreturn memory(none) uwtable
define internal float @av_clipf_c(float noundef %0, float noundef %1, float noundef %2) #8 {
  %4 = alloca float, align 4
  %5 = alloca float, align 4
  %6 = alloca float, align 4
  store float %0, ptr %4, align 4, !tbaa !90
  store float %1, ptr %5, align 4, !tbaa !90
  store float %2, ptr %6, align 4, !tbaa !90
  %7 = load float, ptr %4, align 4, !tbaa !90
  %8 = load float, ptr %5, align 4, !tbaa !90
  %9 = fcmp nsz ogt float %7, %8
  br i1 %9, label %10, label %12

10:                                               ; preds = %3
  %11 = load float, ptr %4, align 4, !tbaa !90
  br label %14

12:                                               ; preds = %3
  %13 = load float, ptr %5, align 4, !tbaa !90
  br label %14

14:                                               ; preds = %12, %10
  %15 = phi nsz float [ %11, %10 ], [ %13, %12 ]
  %16 = load float, ptr %6, align 4, !tbaa !90
  %17 = fcmp nsz ogt float %15, %16
  br i1 %17, label %18, label %20

18:                                               ; preds = %14
  %19 = load float, ptr %6, align 4, !tbaa !90
  br label %30

20:                                               ; preds = %14
  %21 = load float, ptr %4, align 4, !tbaa !90
  %22 = load float, ptr %5, align 4, !tbaa !90
  %23 = fcmp nsz ogt float %21, %22
  br i1 %23, label %24, label %26

24:                                               ; preds = %20
  %25 = load float, ptr %4, align 4, !tbaa !90
  br label %28

26:                                               ; preds = %20
  %27 = load float, ptr %5, align 4, !tbaa !90
  br label %28

28:                                               ; preds = %26, %24
  %29 = phi nsz float [ %25, %24 ], [ %27, %26 ]
  br label %30

30:                                               ; preds = %28, %18
  %31 = phi nsz float [ %19, %18 ], [ %29, %28 ]
  ret float %31
}

; Function Attrs: inlinehint nounwind uwtable
define internal float @mix(float noundef %0, float noundef %1, float noundef %2) #4 {
  %4 = alloca float, align 4
  %5 = alloca float, align 4
  %6 = alloca float, align 4
  store float %0, ptr %4, align 4, !tbaa !90
  store float %1, ptr %5, align 4, !tbaa !90
  store float %2, ptr %6, align 4, !tbaa !90
  %7 = load float, ptr %4, align 4, !tbaa !90
  %8 = load float, ptr %6, align 4, !tbaa !90
  %9 = load float, ptr %5, align 4, !tbaa !90
  %10 = load float, ptr %6, align 4, !tbaa !90
  %11 = fsub nsz float 1.000000e+00, %10
  %12 = fmul nsz float %9, %11
  %13 = call nsz float @llvm.fmuladd.f32(float %7, float %8, float %12)
  ret float %13
}

; Function Attrs: inlinehint nounwind uwtable
define internal float @smoothstep(float noundef %0, float noundef %1, float noundef %2) #4 {
  %4 = alloca float, align 4
  %5 = alloca float, align 4
  %6 = alloca float, align 4
  %7 = alloca float, align 4
  store float %0, ptr %4, align 4, !tbaa !90
  store float %1, ptr %5, align 4, !tbaa !90
  store float %2, ptr %6, align 4, !tbaa !90
  call void @llvm.lifetime.start.p0(i64 4, ptr %7) #10
  %8 = load float, ptr %6, align 4, !tbaa !90
  %9 = load float, ptr %4, align 4, !tbaa !90
  %10 = fsub nsz float %8, %9
  %11 = load float, ptr %5, align 4, !tbaa !90
  %12 = load float, ptr %4, align 4, !tbaa !90
  %13 = fsub nsz float %11, %12
  %14 = fdiv nsz float %10, %13
  %15 = call nsz float @av_clipf_c(float noundef %14, float noundef 0.000000e+00, float noundef 1.000000e+00) #11
  store float %15, ptr %7, align 4, !tbaa !90
  %16 = load float, ptr %7, align 4, !tbaa !90
  %17 = load float, ptr %7, align 4, !tbaa !90
  %18 = fmul nsz float %16, %17
  %19 = load float, ptr %7, align 4, !tbaa !90
  %20 = call nsz float @llvm.fmuladd.f32(float -2.000000e+00, float %19, float 3.000000e+00)
  %21 = fmul nsz float %18, %20
  call void @llvm.lifetime.end.p0(i64 4, ptr %7) #10
  ret float %21
}

; Function Attrs: nounwind uwtable
define internal void @smoothright16_transition(ptr noundef %0, ptr noundef %1, ptr noundef %2, ptr noundef %3, float noundef %4, i32 noundef %5, i32 noundef %6, i32 noundef %7) #1 {
  %9 = alloca ptr, align 8
  %10 = alloca ptr, align 8
  %11 = alloca ptr, align 8
  %12 = alloca ptr, align 8
  %13 = alloca float, align 4
  %14 = alloca i32, align 4
  %15 = alloca i32, align 4
  %16 = alloca i32, align 4
  %17 = alloca ptr, align 8
  %18 = alloca i32, align 4
  %19 = alloca float, align 4
  %20 = alloca i32, align 4
  %21 = alloca i32, align 4
  %22 = alloca i32, align 4
  %23 = alloca float, align 4
  %24 = alloca i32, align 4
  %25 = alloca ptr, align 8
  %26 = alloca ptr, align 8
  %27 = alloca ptr, align 8
  store ptr %0, ptr %9, align 8, !tbaa !4
  store ptr %1, ptr %10, align 8, !tbaa !36
  store ptr %2, ptr %11, align 8, !tbaa !36
  store ptr %3, ptr %12, align 8, !tbaa !36
  store float %4, ptr %13, align 4, !tbaa !90
  store i32 %5, ptr %14, align 4, !tbaa !32
  store i32 %6, ptr %15, align 4, !tbaa !32
  store i32 %7, ptr %16, align 4, !tbaa !32
  call void @llvm.lifetime.start.p0(i64 8, ptr %17) #10
  %28 = load ptr, ptr %9, align 8, !tbaa !4
  %29 = getelementptr inbounds nuw %struct.AVFilterContext, ptr %28, i32 0, i32 9
  %30 = load ptr, ptr %29, align 8, !tbaa !9
  store ptr %30, ptr %17, align 8, !tbaa !22
  call void @llvm.lifetime.start.p0(i64 4, ptr %18) #10
  %31 = load ptr, ptr %12, align 8, !tbaa !36
  %32 = getelementptr inbounds nuw %struct.AVFrame, ptr %31, i32 0, i32 3
  %33 = load i32, ptr %32, align 8, !tbaa !92
  store i32 %33, ptr %18, align 4, !tbaa !32
  call void @llvm.lifetime.start.p0(i64 4, ptr %19) #10
  %34 = load i32, ptr %18, align 4, !tbaa !32
  %35 = sitofp i32 %34 to float
  store float %35, ptr %19, align 4, !tbaa !90
  call void @llvm.lifetime.start.p0(i64 4, ptr %20) #10
  %36 = load i32, ptr %14, align 4, !tbaa !32
  store i32 %36, ptr %20, align 4, !tbaa !32
  br label %37

37:                                               ; preds = %144, %8
  %38 = load i32, ptr %20, align 4, !tbaa !32
  %39 = load i32, ptr %15, align 4, !tbaa !32
  %40 = icmp slt i32 %38, %39
  br i1 %40, label %42, label %41

41:                                               ; preds = %37
  store i32 2, ptr %21, align 4
  call void @llvm.lifetime.end.p0(i64 4, ptr %20) #10
  br label %147

42:                                               ; preds = %37
  call void @llvm.lifetime.start.p0(i64 4, ptr %22) #10
  store i32 0, ptr %22, align 4, !tbaa !32
  br label %43

43:                                               ; preds = %140, %42
  %44 = load i32, ptr %22, align 4, !tbaa !32
  %45 = load i32, ptr %18, align 4, !tbaa !32
  %46 = icmp slt i32 %44, %45
  br i1 %46, label %48, label %47

47:                                               ; preds = %43
  store i32 5, ptr %21, align 4
  call void @llvm.lifetime.end.p0(i64 4, ptr %22) #10
  br label %143

48:                                               ; preds = %43
  call void @llvm.lifetime.start.p0(i64 4, ptr %23) #10
  %49 = load float, ptr %19, align 4, !tbaa !90
  %50 = fsub nsz float %49, 1.000000e+00
  %51 = load i32, ptr %22, align 4, !tbaa !32
  %52 = sitofp i32 %51 to float
  %53 = fsub nsz float %50, %52
  %54 = load float, ptr %19, align 4, !tbaa !90
  %55 = fdiv nsz float %53, %54
  %56 = fadd nsz float 1.000000e+00, %55
  %57 = load float, ptr %13, align 4, !tbaa !90
  %58 = fneg nsz float %57
  %59 = call nsz float @llvm.fmuladd.f32(float %58, float 2.000000e+00, float %56)
  store float %59, ptr %23, align 4, !tbaa !90
  call void @llvm.lifetime.start.p0(i64 4, ptr %24) #10
  store i32 0, ptr %24, align 4, !tbaa !32
  br label %60

60:                                               ; preds = %136, %48
  %61 = load i32, ptr %24, align 4, !tbaa !32
  %62 = load ptr, ptr %17, align 8, !tbaa !22
  %63 = getelementptr inbounds nuw %struct.XFadeContext, ptr %62, i32 0, i32 5
  %64 = load i32, ptr %63, align 8, !tbaa !82
  %65 = icmp slt i32 %61, %64
  br i1 %65, label %67, label %66

66:                                               ; preds = %60
  store i32 8, ptr %21, align 4
  call void @llvm.lifetime.end.p0(i64 4, ptr %24) #10
  br label %139

67:                                               ; preds = %60
  call void @llvm.lifetime.start.p0(i64 8, ptr %25) #10
  %68 = load ptr, ptr %10, align 8, !tbaa !36
  %69 = getelementptr inbounds nuw %struct.AVFrame, ptr %68, i32 0, i32 0
  %70 = load i32, ptr %24, align 4, !tbaa !32
  %71 = sext i32 %70 to i64
  %72 = getelementptr inbounds [8 x ptr], ptr %69, i64 0, i64 %71
  %73 = load ptr, ptr %72, align 8, !tbaa !96
  %74 = load i32, ptr %20, align 4, !tbaa !32
  %75 = load ptr, ptr %10, align 8, !tbaa !36
  %76 = getelementptr inbounds nuw %struct.AVFrame, ptr %75, i32 0, i32 1
  %77 = load i32, ptr %24, align 4, !tbaa !32
  %78 = sext i32 %77 to i64
  %79 = getelementptr inbounds [8 x i32], ptr %76, i64 0, i64 %78
  %80 = load i32, ptr %79, align 4, !tbaa !32
  %81 = mul nsw i32 %74, %80
  %82 = sext i32 %81 to i64
  %83 = getelementptr inbounds i8, ptr %73, i64 %82
  store ptr %83, ptr %25, align 8, !tbaa !101
  call void @llvm.lifetime.start.p0(i64 8, ptr %26) #10
  %84 = load ptr, ptr %11, align 8, !tbaa !36
  %85 = getelementptr inbounds nuw %struct.AVFrame, ptr %84, i32 0, i32 0
  %86 = load i32, ptr %24, align 4, !tbaa !32
  %87 = sext i32 %86 to i64
  %88 = getelementptr inbounds [8 x ptr], ptr %85, i64 0, i64 %87
  %89 = load ptr, ptr %88, align 8, !tbaa !96
  %90 = load i32, ptr %20, align 4, !tbaa !32
  %91 = load ptr, ptr %11, align 8, !tbaa !36
  %92 = getelementptr inbounds nuw %struct.AVFrame, ptr %91, i32 0, i32 1
  %93 = load i32, ptr %24, align 4, !tbaa !32
  %94 = sext i32 %93 to i64
  %95 = getelementptr inbounds [8 x i32], ptr %92, i64 0, i64 %94
  %96 = load i32, ptr %95, align 4, !tbaa !32
  %97 = mul nsw i32 %90, %96
  %98 = sext i32 %97 to i64
  %99 = getelementptr inbounds i8, ptr %89, i64 %98
  store ptr %99, ptr %26, align 8, !tbaa !101
  call void @llvm.lifetime.start.p0(i64 8, ptr %27) #10
  %100 = load ptr, ptr %12, align 8, !tbaa !36
  %101 = getelementptr inbounds nuw %struct.AVFrame, ptr %100, i32 0, i32 0
  %102 = load i32, ptr %24, align 4, !tbaa !32
  %103 = sext i32 %102 to i64
  %104 = getelementptr inbounds [8 x ptr], ptr %101, i64 0, i64 %103
  %105 = load ptr, ptr %104, align 8, !tbaa !96
  %106 = load i32, ptr %20, align 4, !tbaa !32
  %107 = load ptr, ptr %12, align 8, !tbaa !36
  %108 = getelementptr inbounds nuw %struct.AVFrame, ptr %107, i32 0, i32 1
  %109 = load i32, ptr %24, align 4, !tbaa !32
  %110 = sext i32 %109 to i64
  %111 = getelementptr inbounds [8 x i32], ptr %108, i64 0, i64 %110
  %112 = load i32, ptr %111, align 4, !tbaa !32
  %113 = mul nsw i32 %106, %112
  %114 = sext i32 %113 to i64
  %115 = getelementptr inbounds i8, ptr %105, i64 %114
  store ptr %115, ptr %27, align 8, !tbaa !101
  %116 = load ptr, ptr %26, align 8, !tbaa !101
  %117 = load i32, ptr %22, align 4, !tbaa !32
  %118 = sext i32 %117 to i64
  %119 = getelementptr inbounds i16, ptr %116, i64 %118
  %120 = load i16, ptr %119, align 2, !tbaa !84
  %121 = uitofp i16 %120 to float
  %122 = load ptr, ptr %25, align 8, !tbaa !101
  %123 = load i32, ptr %22, align 4, !tbaa !32
  %124 = sext i32 %123 to i64
  %125 = getelementptr inbounds i16, ptr %122, i64 %124
  %126 = load i16, ptr %125, align 2, !tbaa !84
  %127 = uitofp i16 %126 to float
  %128 = load float, ptr %23, align 4, !tbaa !90
  %129 = call nsz float @smoothstep(float noundef 0.000000e+00, float noundef 1.000000e+00, float noundef %128)
  %130 = call nsz float @mix(float noundef %121, float noundef %127, float noundef %129)
  %131 = fptoui float %130 to i16
  %132 = load ptr, ptr %27, align 8, !tbaa !101
  %133 = load i32, ptr %22, align 4, !tbaa !32
  %134 = sext i32 %133 to i64
  %135 = getelementptr inbounds i16, ptr %132, i64 %134
  store i16 %131, ptr %135, align 2, !tbaa !84
  call void @llvm.lifetime.end.p0(i64 8, ptr %27) #10
  call void @llvm.lifetime.end.p0(i64 8, ptr %26) #10
  call void @llvm.lifetime.end.p0(i64 8, ptr %25) #10
  br label %136

136:                                              ; preds = %67
  %137 = load i32, ptr %24, align 4, !tbaa !32
  %138 = add nsw i32 %137, 1
  store i32 %138, ptr %24, align 4, !tbaa !32
  br label %60, !llvm.loop !207

139:                                              ; preds = %66
  call void @llvm.lifetime.end.p0(i64 4, ptr %23) #10
  br label %140

140:                                              ; preds = %139
  %141 = load i32, ptr %22, align 4, !tbaa !32
  %142 = add nsw i32 %141, 1
  store i32 %142, ptr %22, align 4, !tbaa !32
  br label %43, !llvm.loop !208

143:                                              ; preds = %47
  br label %144

144:                                              ; preds = %143
  %145 = load i32, ptr %20, align 4, !tbaa !32
  %146 = add nsw i32 %145, 1
  store i32 %146, ptr %20, align 4, !tbaa !32
  br label %37, !llvm.loop !209

147:                                              ; preds = %41
  call void @llvm.lifetime.end.p0(i64 4, ptr %19) #10
  call void @llvm.lifetime.end.p0(i64 4, ptr %18) #10
  call void @llvm.lifetime.end.p0(i64 8, ptr %17) #10
  ret void
}