; Function Attrs: nofree norecurse nosync nounwind memory(readwrite, inaccessiblemem: none) uwtable
define internal void @smoothright16_transition(ptr noundef readonly captures(none) %0, ptr noundef readonly captures(none) %1, ptr noundef readonly captures(none) %2, ptr noundef readonly captures(none) %3, float noundef %4, i32 noundef %5, i32 noundef %6, i32 %7) #6 {
  %9 = getelementptr inbounds nuw i8, ptr %3, i64 104
  %10 = load i32, ptr %9, align 8, !tbaa !85
  %11 = sitofp i32 %10 to float
  %12 = icmp slt i32 %5, %6
  br i1 %12, label %.preheader.lr.ph, label %._crit_edge

.preheader.lr.ph:                                 ; preds = %8
  %13 = icmp sgt i32 %10, 0
  %14 = fadd nsz float %11, -1.000000e+00
  %15 = fneg nsz float %4
  %16 = getelementptr inbounds nuw i8, ptr %1, i64 64
  %17 = getelementptr inbounds nuw i8, ptr %2, i64 64
  %18 = getelementptr inbounds nuw i8, ptr %3, i64 64
  br i1 %13, label %.preheader.lr.ph.split.us, label %._crit_edge

.preheader.lr.ph.split.us:                        ; preds = %.preheader.lr.ph
  %19 = getelementptr inbounds nuw i8, ptr %0, i64 72
  %20 = load ptr, ptr %19, align 8, !tbaa !4
  %21 = getelementptr inbounds nuw i8, ptr %20, i64 40
  %22 = load i32, ptr %21, align 8, !tbaa !77
  %23 = icmp sgt i32 %22, 0
  br i1 %23, label %.preheader.us.us.preheader, label %._crit_edge

.preheader.us.us.preheader:                       ; preds = %.preheader.lr.ph.split.us
  %wide.trip.count55 = zext nneg i32 %10 to i64
  %wide.trip.count = zext nneg i32 %22 to i64
  br label %.preheader.us.us

.preheader.us.us:                                 ; preds = %.preheader.us.us.preheader, %._crit_edge43.split.us.us.us
  %.044.us.us = phi i32 [ %69, %._crit_edge43.split.us.us.us ], [ %5, %.preheader.us.us.preheader ]
  br label %.lr.ph.us.us.us

.lr.ph.us.us.us:                                  ; preds = %._crit_edge.us.us.us, %.preheader.us.us
  %indvars.iv52 = phi i64 [ %indvars.iv.next53, %._crit_edge.us.us.us ], [ 0, %.preheader.us.us ]
  %24 = trunc nuw nsw i64 %indvars.iv52 to i32
  %25 = uitofp nneg i32 %24 to float
  %26 = fsub nsz float %14, %25
  %27 = fdiv nsz float %26, %11
  %28 = fadd nsz float %27, 1.000000e+00
  %29 = tail call nsz float @llvm.fmuladd.f32(float %15, float 2.000000e+00, float %28)
  %30 = fcmp nsz ogt float %29, 0.000000e+00
  %31 = select nsz i1 %30, float %29, float 0.000000e+00
  %32 = fcmp nsz ogt float %31, 1.000000e+00
  %..i.i.us.us.us = select nsz i1 %32, float 1.000000e+00, float %31
  %33 = fmul nsz float %..i.i.us.us.us, %..i.i.us.us.us
  %34 = tail call nsz float @llvm.fmuladd.f32(float %..i.i.us.us.us, float -2.000000e+00, float 3.000000e+00)
  %35 = fmul nsz float %33, %34
  %36 = fsub nsz float 1.000000e+00, %35
  br label %37

37:                                               ; preds = %37, %.lr.ph.us.us.us
  %indvars.iv = phi i64 [ %indvars.iv.next, %37 ], [ 0, %.lr.ph.us.us.us ]
  %38 = getelementptr inbounds nuw [8 x ptr], ptr %1, i64 0, i64 %indvars.iv
  %39 = load ptr, ptr %38, align 8, !tbaa !89
  %40 = getelementptr inbounds nuw [8 x i32], ptr %16, i64 0, i64 %indvars.iv
  %41 = load i32, ptr %40, align 4, !tbaa !31
  %42 = mul nsw i32 %41, %.044.us.us
  %43 = sext i32 %42 to i64
  %44 = getelementptr inbounds i8, ptr %39, i64 %43
  %45 = getelementptr inbounds nuw [8 x ptr], ptr %2, i64 0, i64 %indvars.iv
  %46 = load ptr, ptr %45, align 8, !tbaa !89
  %47 = getelementptr inbounds nuw [8 x i32], ptr %17, i64 0, i64 %indvars.iv
  %48 = load i32, ptr %47, align 4, !tbaa !31
  %49 = mul nsw i32 %48, %.044.us.us
  %50 = sext i32 %49 to i64
  %51 = getelementptr inbounds i8, ptr %46, i64 %50
  %52 = getelementptr inbounds nuw [8 x ptr], ptr %3, i64 0, i64 %indvars.iv
  %53 = load ptr, ptr %52, align 8, !tbaa !89
  %54 = getelementptr inbounds nuw [8 x i32], ptr %18, i64 0, i64 %indvars.iv
  %55 = load i32, ptr %54, align 4, !tbaa !31
  %56 = mul nsw i32 %55, %.044.us.us
  %57 = sext i32 %56 to i64
  %58 = getelementptr inbounds i8, ptr %53, i64 %57
  %59 = getelementptr inbounds nuw i16, ptr %51, i64 %indvars.iv52
  %60 = load i16, ptr %59, align 2, !tbaa !79
  %61 = uitofp i16 %60 to float
  %62 = getelementptr inbounds nuw i16, ptr %44, i64 %indvars.iv52
  %63 = load i16, ptr %62, align 2, !tbaa !79
  %64 = uitofp i16 %63 to float
  %65 = fmul nsz float %36, %64
  %66 = tail call nsz noundef float @llvm.fmuladd.f32(float %61, float %35, float %65)
  %67 = fptoui float %66 to i16
  %68 = getelementptr inbounds nuw i16, ptr %58, i64 %indvars.iv52
  store i16 %67, ptr %68, align 2, !tbaa !79
  %indvars.iv.next = add nuw nsw i64 %indvars.iv, 1
  %exitcond.not = icmp eq i64 %indvars.iv.next, %wide.trip.count
  br i1 %exitcond.not, label %._crit_edge.us.us.us, label %37, !llvm.loop !199

._crit_edge.us.us.us:                             ; preds = %37
  %indvars.iv.next53 = add nuw nsw i64 %indvars.iv52, 1
  %exitcond56.not = icmp eq i64 %indvars.iv.next53, %wide.trip.count55
  br i1 %exitcond56.not, label %._crit_edge43.split.us.us.us, label %.lr.ph.us.us.us, !llvm.loop !200

._crit_edge43.split.us.us.us:                     ; preds = %._crit_edge.us.us.us
  %69 = add nsw i32 %.044.us.us, 1
  %exitcond57.not = icmp eq i32 %69, %6
  br i1 %exitcond57.not, label %._crit_edge, label %.preheader.us.us, !llvm.loop !201

._crit_edge:                                      ; preds = %._crit_edge43.split.us.us.us, %.preheader.lr.ph.split.us, %.preheader.lr.ph, %8
  ret void
}